target datalayout = "e-m:e-p270:32:32-p271:32:32-p272:64:64-i64:64-i128:128-f80:128-n8:16:32:64-S128"
target triple = "x86_64-pc-linux-gnu"

; Function Attrs: nounwind uwtable
define dso_local signext i8 @column_type_alignment(i32 noundef %0) #0 {
  %2 = alloca i32, align 4
  %3 = alloca i8, align 1
  store i32 %0, ptr %2, align 4
  call void @llvm.lifetime.start.p0(i64 1, ptr %3) #8
  %4 = load i32, ptr %2, align 4
  switch i32 %4, label %6 [
    i32 21, label %5
    i32 23, label %5
    i32 20, label %5
    i32 700, label %5
    i32 701, label %5
    i32 1700, label %5
    i32 26, label %5
    i32 28, label %5
    i32 5069, label %5
    i32 29, label %5
    i32 790, label %5
  ]

5:                                                ; preds = %1, %1, %1, %1, %1, %1, %1, %1, %1, %1, %1
  store i8 114, ptr %3, align 1
  br label %7

6:                                                ; preds = %1
  store i8 108, ptr %3, align 1
  br label %7

7:                                                ; preds = %6, %5
  %8 = load i8, ptr %3, align 1
  call void @llvm.lifetime.end.p0(i64 1, ptr %3) #8
  ret i8 %8
}