; Function Attrs: mustprogress nofree norecurse nosync nounwind willreturn memory(none) uwtable
define dso_local signext range(i8 108, 115) i8 @column_type_alignment(i32 noundef %0) local_unnamed_addr #11 {
  switch i32 %0, label %2 [
    i32 21, label %3
    i32 23, label %3
    i32 20, label %3
    i32 700, label %3
    i32 701, label %3
    i32 1700, label %3
    i32 26, label %3
    i32 28, label %3
    i32 5069, label %3
    i32 29, label %3
    i32 790, label %3
  ]

2:                                                ; preds = %1
  br label %3

3:                                                ; preds = %1, %1, %1, %1, %1, %1, %1, %1, %1, %1, %1, %2
  %.0 = phi i8 [ 108, %2 ], [ 114, %1 ], [ 114, %1 ], [ 114, %1 ], [ 114, %1 ], [ 114, %1 ], [ 114, %1 ], [ 114, %1 ], [ 114, %1 ], [ 114, %1 ], [ 114, %1 ], [ 114, %1 ]
  ret i8 %.0
}